target datalayout = "e-m:e-p270:32:32-p271:32:32-p272:64:64-i64:64-i128:128-f80:128-n8:16:32:64-S128"
target triple = "x86_64-pc-linux-gnu"

@.str.82 = private unnamed_addr constant [2 x i8] c" \00", align 1
@.str.99 = private unnamed_addr constant [3 x i8] c"\\\22\00", align 1
@.str.100 = private unnamed_addr constant [3 x i8] c"\\\\\00", align 1
@.str.101 = private unnamed_addr constant [3 x i8] c"\\b\00", align 1
@.str.102 = private unnamed_addr constant [3 x i8] c"\\f\00", align 1
@.str.103 = private unnamed_addr constant [3 x i8] c"\\n\00", align 1
@.str.104 = private unnamed_addr constant [3 x i8] c"\\r\00", align 1
@.str.105 = private unnamed_addr constant [3 x i8] c"\\t\00", align 1
@.str.106 = private unnamed_addr constant [3 x i8] c"\\ \00", align 1
@.str.107 = private unnamed_addr constant [3 x i8] c"%c\00", align 1
@.str.108 = private unnamed_addr constant [6 x i8] c"\\%03o\00", align 1

; Function Attrs: nounwind uwtable
define internal i32 @print_string(ptr noundef %0, ptr noundef %1, i1 noundef zeroext %2) #0 {
  %4 = alloca ptr, align 8
  %5 = alloca ptr, align 8
  %6 = alloca i8, align 1
  %7 = alloca i32, align 4
  store ptr %0, ptr %4, align 8, !tbaa !81
  store ptr %1, ptr %5, align 8, !tbaa !13
  %8 = zext i1 %2 to i8
  store i8 %8, ptr %6, align 1, !tbaa !15
  call void @llvm.lifetime.start.p0(i64 4, ptr %7) #12
  store i32 0, ptr %7, align 4, !tbaa !4
  br label %9

9:                                                ; preds = %146, %3
  %10 = load ptr, ptr %5, align 8, !tbaa !13
  %11 = icmp ne ptr %10, null
  br i1 %11, label %12, label %17

12:                                               ; preds = %9
  %13 = load ptr, ptr %5, align 8, !tbaa !13
  %14 = load i8, ptr %13, align 1, !tbaa !21
  %15 = sext i8 %14 to i32
  %16 = icmp ne i32 %15, 0
  br label %17

17:                                               ; preds = %12, %9
  %18 = phi i1 [ false, %9 ], [ %16, %12 ]
  br i1 %18, label %19, label %149

19:                                               ; preds = %17
  %20 = load ptr, ptr %5, align 8, !tbaa !13
  %21 = load i8, ptr %20, align 1, !tbaa !21
  %22 = sext i8 %21 to i32
  switch i32 %22, label %108 [
    i32 34, label %23
    i32 92, label %32
    i32 8, label %41
    i32 12, label %50
    i32 10, label %59
    i32 13, label %68
    i32 9, label %77
    i32 32, label %86
  ]

23:                                               ; preds = %19
  %24 = load ptr, ptr %4, align 8, !tbaa !81
  %25 = icmp ne ptr %24, null
  br i1 %25, label %26, label %29

26:                                               ; preds = %23
  %27 = load ptr, ptr %4, align 8, !tbaa !81
  %28 = call ptr (ptr, ptr, ...) @h5tools_str_append(ptr noundef %27, ptr noundef @.str.99)
  br label %29

29:                                               ; preds = %26, %23
  %30 = load i32, ptr %7, align 4, !tbaa !4
  %31 = add nsw i32 %30, 2
  store i32 %31, ptr %7, align 4, !tbaa !4
  br label %145

32:                                               ; preds = %19
  %33 = load ptr, ptr %4, align 8, !tbaa !81
  %34 = icmp ne ptr %33, null
  br i1 %34, label %35, label %38

35:                                               ; preds = %32
  %36 = load ptr, ptr %4, align 8, !tbaa !81
  %37 = call ptr (ptr, ptr, ...) @h5tools_str_append(ptr noundef %36, ptr noundef @.str.100)
  br label %38

38:                                               ; preds = %35, %32
  %39 = load i32, ptr %7, align 4, !tbaa !4
  %40 = add nsw i32 %39, 2
  store i32 %40, ptr %7, align 4, !tbaa !4
  br label %145

41:                                               ; preds = %19
  %42 = load ptr, ptr %4, align 8, !tbaa !81
  %43 = icmp ne ptr %42, null
  br i1 %43, label %44, label %47

44:                                               ; preds = %41
  %45 = load ptr, ptr %4, align 8, !tbaa !81
  %46 = call ptr (ptr, ptr, ...) @h5tools_str_append(ptr noundef %45, ptr noundef @.str.101)
  br label %47

47:                                               ; preds = %44, %41
  %48 = load i32, ptr %7, align 4, !tbaa !4
  %49 = add nsw i32 %48, 2
  store i32 %49, ptr %7, align 4, !tbaa !4
  br label %145

50:                                               ; preds = %19
  %51 = load ptr, ptr %4, align 8, !tbaa !81
  %52 = icmp ne ptr %51, null
  br i1 %52, label %53, label %56

53:                                               ; preds = %50
  %54 = load ptr, ptr %4, align 8, !tbaa !81
  %55 = call ptr (ptr, ptr, ...) @h5tools_str_append(ptr noundef %54, ptr noundef @.str.102)
  br label %56

56:                                               ; preds = %53, %50
  %57 = load i32, ptr %7, align 4, !tbaa !4
  %58 = add nsw i32 %57, 2
  store i32 %58, ptr %7, align 4, !tbaa !4
  br label %145

59:                                               ; preds = %19
  %60 = load ptr, ptr %4, align 8, !tbaa !81
  %61 = icmp ne ptr %60, null
  br i1 %61, label %62, label %65

62:                                               ; preds = %59
  %63 = load ptr, ptr %4, align 8, !tbaa !81
  %64 = call ptr (ptr, ptr, ...) @h5tools_str_append(ptr noundef %63, ptr noundef @.str.103)
  br label %65

65:                                               ; preds = %62, %59
  %66 = load i32, ptr %7, align 4, !tbaa !4
  %67 = add nsw i32 %66, 2
  store i32 %67, ptr %7, align 4, !tbaa !4
  br label %145

68:                                               ; preds = %19
  %69 = load ptr, ptr %4, align 8, !tbaa !81
  %70 = icmp ne ptr %69, null
  br i1 %70, label %71, label %74

71:                                               ; preds = %68
  %72 = load ptr, ptr %4, align 8, !tbaa !81
  %73 = call ptr (ptr, ptr, ...) @h5tools_str_append(ptr noundef %72, ptr noundef @.str.104)
  br label %74

74:                                               ; preds = %71, %68
  %75 = load i32, ptr %7, align 4, !tbaa !4
  %76 = add nsw i32 %75, 2
  store i32 %76, ptr %7, align 4, !tbaa !4
  br label %145

77:                                               ; preds = %19
  %78 = load ptr, ptr %4, align 8, !tbaa !81
  %79 = icmp ne ptr %78, null
  br i1 %79, label %80, label %83

80:                                               ; preds = %77
  %81 = load ptr, ptr %4, align 8, !tbaa !81
  %82 = call ptr (ptr, ptr, ...) @h5tools_str_append(ptr noundef %81, ptr noundef @.str.105)
  br label %83

83:                                               ; preds = %80, %77
  %84 = load i32, ptr %7, align 4, !tbaa !4
  %85 = add nsw i32 %84, 2
  store i32 %85, ptr %7, align 4, !tbaa !4
  br label %145

86:                                               ; preds = %19
  %87 = load i8, ptr %6, align 1, !tbaa !15, !range !33, !noundef !34
  %88 = trunc i8 %87 to i1
  br i1 %88, label %89, label %98

89:                                               ; preds = %86
  %90 = load ptr, ptr %4, align 8, !tbaa !81
  %91 = icmp ne ptr %90, null
  br i1 %91, label %92, label %95

92:                                               ; preds = %89
  %93 = load ptr, ptr %4, align 8, !tbaa !81
  %94 = call ptr (ptr, ptr, ...) @h5tools_str_append(ptr noundef %93, ptr noundef @.str.106)
  br label %95

95:                                               ; preds = %92, %89
  %96 = load i32, ptr %7, align 4, !tbaa !4
  %97 = add nsw i32 %96, 2
  store i32 %97, ptr %7, align 4, !tbaa !4
  br label %107

98:                                               ; preds = %86
  %99 = load ptr, ptr %4, align 8, !tbaa !81
  %100 = icmp ne ptr %99, null
  br i1 %100, label %101, label %104

101:                                              ; preds = %98
  %102 = load ptr, ptr %4, align 8, !tbaa !81
  %103 = call ptr (ptr, ptr, ...) @h5tools_str_append(ptr noundef %102, ptr noundef @.str.82)
  br label %104

104:                                              ; preds = %101, %98
  %105 = load i32, ptr %7, align 4, !tbaa !4
  %106 = add nsw i32 %105, 1
  store i32 %106, ptr %7, align 4, !tbaa !4
  br label %107

107:                                              ; preds = %104, %95
  br label %145

108:                                              ; preds = %19
  %109 = call ptr @__ctype_b_loc() #14
  %110 = load ptr, ptr %109, align 8, !tbaa !75
  %111 = load ptr, ptr %5, align 8, !tbaa !13
  %112 = load i8, ptr %111, align 1, !tbaa !21
  %113 = sext i8 %112 to i32
  %114 = sext i32 %113 to i64
  %115 = getelementptr inbounds i16, ptr %110, i64 %114
  %116 = load i16, ptr %115, align 2, !tbaa !77
  %117 = zext i16 %116 to i32
  %118 = and i32 %117, 16384
  %119 = icmp ne i32 %118, 0
  br i1 %119, label %120, label %132

120:                                              ; preds = %108
  %121 = load ptr, ptr %4, align 8, !tbaa !81
  %122 = icmp ne ptr %121, null
  br i1 %122, label %123, label %129

123:                                              ; preds = %120
  %124 = load ptr, ptr %4, align 8, !tbaa !81
  %125 = load ptr, ptr %5, align 8, !tbaa !13
  %126 = load i8, ptr %125, align 1, !tbaa !21
  %127 = sext i8 %126 to i32
  %128 = call ptr (ptr, ptr, ...) @h5tools_str_append(ptr noundef %124, ptr noundef @.str.107, i32 noundef %127)
  br label %129

129:                                              ; preds = %123, %120
  %130 = load i32, ptr %7, align 4, !tbaa !4
  %131 = add nsw i32 %130, 1
  store i32 %131, ptr %7, align 4, !tbaa !4
  br label %144

132:                                              ; preds = %108
  %133 = load ptr, ptr %4, align 8, !tbaa !81
  %134 = icmp ne ptr %133, null
  br i1 %134, label %135, label %141

135:                                              ; preds = %132
  %136 = load ptr, ptr %4, align 8, !tbaa !81
  %137 = load ptr, ptr %5, align 8, !tbaa !13
  %138 = load i8, ptr %137, align 1, !tbaa !21
  %139 = zext i8 %138 to i32
  %140 = call ptr (ptr, ptr, ...) @h5tools_str_append(ptr noundef %136, ptr noundef @.str.108, i32 noundef %139)
  br label %141

141:                                              ; preds = %135, %132
  %142 = load i32, ptr %7, align 4, !tbaa !4
  %143 = add nsw i32 %142, 4
  store i32 %143, ptr %7, align 4, !tbaa !4
  br label %144

144:                                              ; preds = %141, %129
  br label %145

145:                                              ; preds = %144, %107, %83, %74, %65, %56, %47, %38, %29
  br label %146

146:                                              ; preds = %145
  %147 = load ptr, ptr %5, align 8, !tbaa !13
  %148 = getelementptr inbounds nuw i8, ptr %147, i32 1
  store ptr %148, ptr %5, align 8, !tbaa !13
  br label %9, !llvm.loop !91

149:                                              ; preds = %17
  %150 = load i32, ptr %7, align 4, !tbaa !4
  call void @llvm.lifetime.end.p0(i64 4, ptr %7) #12
  ret i32 %150
}