; Function Attrs: nounwind uwtable
define internal fastcc range(i32 -2147483647, -2147483648) i32 @print_string(ptr noundef %0, ptr noundef readonly captures(address_is_null) %1, i1 noundef zeroext %2) unnamed_addr #4 {
  %.not58 = icmp eq ptr %1, null
  br i1 %.not58, label %.critedge, label %.lr.ph

.lr.ph:                                           ; preds = %3
  %.not46 = icmp eq ptr %0, null
  br label %4

4:                                                ; preds = %49, %.lr.ph
  %.060 = phi i32 [ 0, %.lr.ph ], [ %50, %49 ]
  %.04159 = phi ptr [ %1, %.lr.ph ], [ %51, %49 ]
  %5 = load i8, ptr %.04159, align 1, !tbaa !12
  %6 = sext i8 %5 to i32
  switch i8 %5, label %35 [
    i8 0, label %.critedge
    i8 34, label %7
    i8 92, label %10
    i8 8, label %13
    i8 12, label %16
    i8 10, label %19
    i8 13, label %22
    i8 9, label %25
    i8 32, label %28
  ]

7:                                                ; preds = %4
  br i1 %.not46, label %49, label %8

8:                                                ; preds = %7
  %9 = tail call ptr (ptr, ptr, ...) @h5tools_str_append(ptr noundef nonnull %0, ptr noundef nonnull @.str.99) #20
  br label %49

10:                                               ; preds = %4
  br i1 %.not46, label %49, label %11

11:                                               ; preds = %10
  %12 = tail call ptr (ptr, ptr, ...) @h5tools_str_append(ptr noundef nonnull %0, ptr noundef nonnull @.str.100) #20
  br label %49

13:                                               ; preds = %4
  br i1 %.not46, label %49, label %14

14:                                               ; preds = %13
  %15 = tail call ptr (ptr, ptr, ...) @h5tools_str_append(ptr noundef nonnull %0, ptr noundef nonnull @.str.101) #20
  br label %49

16:                                               ; preds = %4
  br i1 %.not46, label %49, label %17

17:                                               ; preds = %16
  %18 = tail call ptr (ptr, ptr, ...) @h5tools_str_append(ptr noundef nonnull %0, ptr noundef nonnull @.str.102) #20
  br label %49

19:                                               ; preds = %4
  br i1 %.not46, label %49, label %20

20:                                               ; preds = %19
  %21 = tail call ptr (ptr, ptr, ...) @h5tools_str_append(ptr noundef nonnull %0, ptr noundef nonnull @.str.103) #20
  br label %49

22:                                               ; preds = %4
  br i1 %.not46, label %49, label %23

23:                                               ; preds = %22
  %24 = tail call ptr (ptr, ptr, ...) @h5tools_str_append(ptr noundef nonnull %0, ptr noundef nonnull @.str.104) #20
  br label %49

25:                                               ; preds = %4
  br i1 %.not46, label %49, label %26

26:                                               ; preds = %25
  %27 = tail call ptr (ptr, ptr, ...) @h5tools_str_append(ptr noundef nonnull %0, ptr noundef nonnull @.str.105) #20
  br label %49

28:                                               ; preds = %4
  br i1 %2, label %29, label %32

29:                                               ; preds = %28
  br i1 %.not46, label %49, label %30

30:                                               ; preds = %29
  %31 = tail call ptr (ptr, ptr, ...) @h5tools_str_append(ptr noundef nonnull %0, ptr noundef nonnull @.str.106) #20
  br label %49

32:                                               ; preds = %28
  br i1 %.not46, label %49, label %33

33:                                               ; preds = %32
  %34 = tail call ptr (ptr, ptr, ...) @h5tools_str_append(ptr noundef nonnull %0, ptr noundef nonnull @.str.82) #20
  br label %49

35:                                               ; preds = %4
  %36 = tail call ptr @__ctype_b_loc() #21
  %37 = load ptr, ptr %36, align 8, !tbaa !13
  %38 = sext i8 %5 to i64
  %39 = getelementptr inbounds i16, ptr %37, i64 %38
  %40 = load i16, ptr %39, align 2, !tbaa !15
  %41 = and i16 %40, 16384
  %.not55 = icmp eq i16 %41, 0
  br i1 %.not55, label %45, label %42

42:                                               ; preds = %35
  br i1 %.not46, label %49, label %43

43:                                               ; preds = %42
  %44 = tail call ptr (ptr, ptr, ...) @h5tools_str_append(ptr noundef nonnull %0, ptr noundef nonnull @.str.107, i32 noundef %6) #20
  br label %49

45:                                               ; preds = %35
  br i1 %.not46, label %49, label %46

46:                                               ; preds = %45
  %47 = zext i8 %5 to i32
  %48 = tail call ptr (ptr, ptr, ...) @h5tools_str_append(ptr noundef nonnull %0, ptr noundef nonnull @.str.108, i32 noundef %47) #20
  br label %49

49:                                               ; preds = %45, %46, %42, %43, %32, %33, %29, %30, %25, %26, %22, %23, %19, %20, %16, %17, %13, %14, %10, %11, %7, %8
  %.sink = phi i32 [ 2, %8 ], [ 2, %7 ], [ 2, %11 ], [ 2, %10 ], [ 2, %14 ], [ 2, %13 ], [ 2, %17 ], [ 2, %16 ], [ 2, %20 ], [ 2, %19 ], [ 2, %23 ], [ 2, %22 ], [ 2, %26 ], [ 2, %25 ], [ 2, %30 ], [ 2, %29 ], [ 1, %33 ], [ 1, %32 ], [ 1, %43 ], [ 1, %42 ], [ 4, %46 ], [ 4, %45 ]
  %50 = add nuw nsw i32 %.060, %.sink
  %51 = getelementptr inbounds nuw i8, ptr %.04159, i64 1
  br label %4

.critedge:                                        ; preds = %4, %3
  %.0.lcssa = phi i32 [ 0, %3 ], [ %.060, %4 ]
  ret i32 %.0.lcssa
}